target datalayout = "e-m:e-p270:32:32-p271:32:32-p272:64:64-i64:64-i128:128-f80:128-n8:16:32:64-S128"
target triple = "x86_64-pc-linux-gnu"

%struct.BITS = type <{ i64, i16, [2 x i8] }>

; Function Attrs: nounwind uwtable
define i32 @unpack_bitfields(ptr noundef %0, i8 noundef signext %1) #0 {
  %3 = alloca i32, align 4
  %4 = alloca ptr, align 8
  %5 = alloca i8, align 1
  store ptr %0, ptr %4, align 8, !tbaa !72
  store i8 %1, ptr %5, align 1, !tbaa !20
  %6 = load i8, ptr %5, align 1, !tbaa !20
  %7 = sext i8 %6 to i32
  switch i32 %7, label %110 [
    i32 65, label %8
    i32 66, label %14
    i32 67, label %20
    i32 68, label %26
    i32 69, label %32
    i32 70, label %38
    i32 71, label %44
    i32 72, label %50
    i32 73, label %56
    i32 77, label %62
    i32 78, label %69
    i32 79, label %76
    i32 80, label %83
    i32 81, label %90
    i32 82, label %96
    i32 83, label %103
  ]

8:                                                ; preds = %2
  %9 = load ptr, ptr %4, align 8, !tbaa !72
  %10 = load i64, ptr %9, align 4
  %11 = shl i64 %10, 63
  %12 = ashr i64 %11, 63
  %13 = trunc i64 %12 to i32
  store i32 %13, ptr %3, align 4
  br label %111

14:                                               ; preds = %2
  %15 = load ptr, ptr %4, align 8, !tbaa !72
  %16 = load i64, ptr %15, align 4
  %17 = shl i64 %16, 61
  %18 = ashr i64 %17, 62
  %19 = trunc i64 %18 to i32
  store i32 %19, ptr %3, align 4
  br label %111

20:                                               ; preds = %2
  %21 = load ptr, ptr %4, align 8, !tbaa !72
  %22 = load i64, ptr %21, align 4
  %23 = shl i64 %22, 58
  %24 = ashr i64 %23, 61
  %25 = trunc i64 %24 to i32
  store i32 %25, ptr %3, align 4
  br label %111

26:                                               ; preds = %2
  %27 = load ptr, ptr %4, align 8, !tbaa !72
  %28 = load i64, ptr %27, align 4
  %29 = shl i64 %28, 54
  %30 = ashr i64 %29, 60
  %31 = trunc i64 %30 to i32
  store i32 %31, ptr %3, align 4
  br label %111

32:                                               ; preds = %2
  %33 = load ptr, ptr %4, align 8, !tbaa !72
  %34 = load i64, ptr %33, align 4
  %35 = shl i64 %34, 49
  %36 = ashr i64 %35, 59
  %37 = trunc i64 %36 to i32
  store i32 %37, ptr %3, align 4
  br label %111

38:                                               ; preds = %2
  %39 = load ptr, ptr %4, align 8, !tbaa !72
  %40 = load i64, ptr %39, align 4
  %41 = shl i64 %40, 43
  %42 = ashr i64 %41, 58
  %43 = trunc i64 %42 to i32
  store i32 %43, ptr %3, align 4
  br label %111

44:                                               ; preds = %2
  %45 = load ptr, ptr %4, align 8, !tbaa !72
  %46 = load i64, ptr %45, align 4
  %47 = shl i64 %46, 36
  %48 = ashr i64 %47, 57
  %49 = trunc i64 %48 to i32
  store i32 %49, ptr %3, align 4
  br label %111

50:                                               ; preds = %2
  %51 = load ptr, ptr %4, align 8, !tbaa !72
  %52 = load i64, ptr %51, align 4
  %53 = shl i64 %52, 24
  %54 = ashr i64 %53, 56
  %55 = trunc i64 %54 to i32
  store i32 %55, ptr %3, align 4
  br label %111

56:                                               ; preds = %2
  %57 = load ptr, ptr %4, align 8, !tbaa !72
  %58 = load i64, ptr %57, align 4
  %59 = shl i64 %58, 15
  %60 = ashr i64 %59, 55
  %61 = trunc i64 %60 to i32
  store i32 %61, ptr %3, align 4
  br label %111

62:                                               ; preds = %2
  %63 = load ptr, ptr %4, align 8, !tbaa !72
  %64 = load i64, ptr %63, align 4
  %65 = shl i64 %64, 14
  %66 = ashr i64 %65, 63
  %67 = trunc i64 %66 to i16
  %68 = sext i16 %67 to i32
  store i32 %68, ptr %3, align 4
  br label %111

69:                                               ; preds = %2
  %70 = load ptr, ptr %4, align 8, !tbaa !72
  %71 = load i64, ptr %70, align 4
  %72 = shl i64 %71, 12
  %73 = ashr i64 %72, 62
  %74 = trunc i64 %73 to i16
  %75 = sext i16 %74 to i32
  store i32 %75, ptr %3, align 4
  br label %111

76:                                               ; preds = %2
  %77 = load ptr, ptr %4, align 8, !tbaa !72
  %78 = load i64, ptr %77, align 4
  %79 = shl i64 %78, 9
  %80 = ashr i64 %79, 61
  %81 = trunc i64 %80 to i16
  %82 = sext i16 %81 to i32
  store i32 %82, ptr %3, align 4
  br label %111

83:                                               ; preds = %2
  %84 = load ptr, ptr %4, align 8, !tbaa !72
  %85 = load i64, ptr %84, align 4
  %86 = shl i64 %85, 5
  %87 = ashr i64 %86, 60
  %88 = trunc i64 %87 to i16
  %89 = sext i16 %88 to i32
  store i32 %89, ptr %3, align 4
  br label %111

90:                                               ; preds = %2
  %91 = load ptr, ptr %4, align 8, !tbaa !72
  %92 = load i64, ptr %91, align 4
  %93 = ashr i64 %92, 59
  %94 = trunc i64 %93 to i16
  %95 = sext i16 %94 to i32
  store i32 %95, ptr %3, align 4
  br label %111

96:                                               ; preds = %2
  %97 = load ptr, ptr %4, align 8, !tbaa !72
  %98 = getelementptr inbounds nuw %struct.BITS, ptr %97, i32 0, i32 1
  %99 = load i16, ptr %98, align 4
  %100 = shl i16 %99, 10
  %101 = ashr i16 %100, 10
  %102 = sext i16 %101 to i32
  store i32 %102, ptr %3, align 4
  br label %111

103:                                              ; preds = %2
  %104 = load ptr, ptr %4, align 8, !tbaa !72
  %105 = getelementptr inbounds nuw %struct.BITS, ptr %104, i32 0, i32 1
  %106 = load i16, ptr %105, align 4
  %107 = shl i16 %106, 3
  %108 = ashr i16 %107, 9
  %109 = sext i16 %108 to i32
  store i32 %109, ptr %3, align 4
  br label %111

110:                                              ; preds = %2
  store i32 999, ptr %3, align 4
  br label %111

111:                                              ; preds = %110, %103, %96, %90, %83, %76, %69, %62, %56, %50, %44, %38, %32, %26, %20, %14, %8
  %112 = load i32, ptr %3, align 4
  ret i32 %112
}