; Function Attrs: mustprogress nofree norecurse nosync nounwind willreturn memory(argmem: read) uwtable
define range(i32 -256, 1000) i32 @unpack_bitfields(ptr noundef readonly captures(none) %0, i8 noundef signext %1) local_unnamed_addr #11 {
  switch i8 %1, label %84 [
    i8 65, label %3
    i8 66, label %8
    i8 67, label %13
    i8 68, label %18
    i8 69, label %23
    i8 70, label %28
    i8 71, label %33
    i8 72, label %38
    i8 73, label %43
    i8 77, label %48
    i8 78, label %53
    i8 79, label %58
    i8 80, label %63
    i8 81, label %68
    i8 82, label %72
    i8 83, label %78
  ]

3:                                                ; preds = %2
  %4 = load i64, ptr %0, align 4
  %5 = trunc i64 %4 to i32
  %6 = and i32 %5, 1
  %7 = sub nsw i32 0, %6
  br label %84

8:                                                ; preds = %2
  %9 = load i64, ptr %0, align 4
  %10 = shl i64 %9, 61
  %11 = ashr i64 %10, 62
  %12 = trunc nsw i64 %11 to i32
  br label %84

13:                                               ; preds = %2
  %14 = load i64, ptr %0, align 4
  %15 = shl i64 %14, 58
  %16 = ashr i64 %15, 61
  %17 = trunc nsw i64 %16 to i32
  br label %84

18:                                               ; preds = %2
  %19 = load i64, ptr %0, align 4
  %20 = shl i64 %19, 54
  %21 = ashr i64 %20, 60
  %22 = trunc nsw i64 %21 to i32
  br label %84

23:                                               ; preds = %2
  %24 = load i64, ptr %0, align 4
  %25 = shl i64 %24, 49
  %26 = ashr i64 %25, 59
  %27 = trunc nsw i64 %26 to i32
  br label %84

28:                                               ; preds = %2
  %29 = load i64, ptr %0, align 4
  %30 = shl i64 %29, 43
  %31 = ashr i64 %30, 58
  %32 = trunc nsw i64 %31 to i32
  br label %84

33:                                               ; preds = %2
  %34 = load i64, ptr %0, align 4
  %35 = shl i64 %34, 36
  %36 = ashr i64 %35, 57
  %37 = trunc nsw i64 %36 to i32
  br label %84

38:                                               ; preds = %2
  %39 = load i64, ptr %0, align 4
  %40 = shl i64 %39, 24
  %41 = ashr i64 %40, 56
  %42 = trunc nsw i64 %41 to i32
  br label %84

43:                                               ; preds = %2
  %44 = load i64, ptr %0, align 4
  %45 = shl i64 %44, 15
  %46 = ashr i64 %45, 55
  %47 = trunc nsw i64 %46 to i32
  br label %84

48:                                               ; preds = %2
  %49 = load i64, ptr %0, align 4
  %50 = shl i64 %49, 14
  %51 = ashr i64 %50, 63
  %52 = trunc nsw i64 %51 to i32
  br label %84

53:                                               ; preds = %2
  %54 = load i64, ptr %0, align 4
  %55 = shl i64 %54, 12
  %56 = ashr i64 %55, 62
  %57 = trunc nsw i64 %56 to i32
  br label %84

58:                                               ; preds = %2
  %59 = load i64, ptr %0, align 4
  %60 = shl i64 %59, 9
  %61 = ashr i64 %60, 61
  %62 = trunc nsw i64 %61 to i32
  br label %84

63:                                               ; preds = %2
  %64 = load i64, ptr %0, align 4
  %65 = shl i64 %64, 5
  %66 = ashr i64 %65, 60
  %67 = trunc nsw i64 %66 to i32
  br label %84

68:                                               ; preds = %2
  %69 = load i64, ptr %0, align 4
  %70 = ashr i64 %69, 59
  %71 = trunc nsw i64 %70 to i32
  br label %84

72:                                               ; preds = %2
  %73 = getelementptr inbounds nuw i8, ptr %0, i64 8
  %74 = load i16, ptr %73, align 4
  %75 = shl i16 %74, 10
  %76 = ashr exact i16 %75, 10
  %77 = sext i16 %76 to i32
  br label %84

78:                                               ; preds = %2
  %79 = getelementptr inbounds nuw i8, ptr %0, i64 8
  %80 = load i16, ptr %79, align 4
  %81 = shl i16 %80, 3
  %82 = ashr i16 %81, 9
  %83 = sext i16 %82 to i32
  br label %84

84:                                               ; preds = %2, %78, %72, %68, %63, %58, %53, %48, %43, %38, %33, %28, %23, %18, %13, %8, %3
  %.0 = phi i32 [ %83, %78 ], [ %77, %72 ], [ %71, %68 ], [ %67, %63 ], [ %62, %58 ], [ %57, %53 ], [ %52, %48 ], [ %47, %43 ], [ %42, %38 ], [ %37, %33 ], [ %32, %28 ], [ %27, %23 ], [ %22, %18 ], [ %17, %13 ], [ %12, %8 ], [ %7, %3 ], [ 999, %2 ]
  ret i32 %.0
}